; Function Attrs: nounwind uwtable
define void @OPENSSL_LH_flush(ptr noundef captures(address_is_null) %0) local_unnamed_addr #1 {
  %2 = icmp eq ptr %0, null
  br i1 %2, label %17, label %.preheader

.preheader:                                       ; preds = %1
  %3 = getelementptr inbounds nuw i8, ptr %0, i64 56
  %4 = load i32, ptr %3, align 8, !tbaa !17
  %.not19 = icmp eq i32 %4, 0
  br i1 %.not19, label %._crit_edge18, label %.lr.ph17.preheader

.lr.ph17.preheader:                               ; preds = %.preheader
  %.pre = load ptr, ptr %0, align 8, !tbaa !14
  br label %.lr.ph17

.lr.ph17:                                         ; preds = %.lr.ph17.preheader, %._crit_edge
  %5 = phi i32 [ %4, %.lr.ph17.preheader ], [ %11, %._crit_edge ]
  %6 = phi ptr [ %.pre, %.lr.ph17.preheader ], [ %12, %._crit_edge ]
  %indvars.iv = phi i64 [ 0, %.lr.ph17.preheader ], [ %indvars.iv.next, %._crit_edge ]
  %7 = getelementptr inbounds nuw ptr, ptr %6, i64 %indvars.iv
  %8 = load ptr, ptr %7, align 8, !tbaa !25
  %.not14 = icmp eq ptr %8, null
  br i1 %.not14, label %._crit_edge, label %.lr.ph

.lr.ph:                                           ; preds = %.lr.ph17, %.lr.ph
  %.01215 = phi ptr [ %10, %.lr.ph ], [ %8, %.lr.ph17 ]
  %9 = getelementptr inbounds nuw i8, ptr %.01215, i64 8
  %10 = load ptr, ptr %9, align 8, !tbaa !27
  tail call void @CRYPTO_free(ptr noundef nonnull %.01215, ptr noundef nonnull @.str, i32 noundef 108) #7
  %.not = icmp eq ptr %10, null
  br i1 %.not, label %._crit_edge.loopexit, label %.lr.ph, !llvm.loop !29

._crit_edge.loopexit:                             ; preds = %.lr.ph
  %.pre21 = load ptr, ptr %0, align 8, !tbaa !14
  %.pre22 = load i32, ptr %3, align 8, !tbaa !17
  br label %._crit_edge

._crit_edge:                                      ; preds = %._crit_edge.loopexit, %.lr.ph17
  %11 = phi i32 [ %.pre22, %._crit_edge.loopexit ], [ %5, %.lr.ph17 ]
  %12 = phi ptr [ %.pre21, %._crit_edge.loopexit ], [ %6, %.lr.ph17 ]
  %13 = getelementptr inbounds nuw ptr, ptr %12, i64 %indvars.iv
  store ptr null, ptr %13, align 8, !tbaa !25
  %indvars.iv.next = add nuw nsw i64 %indvars.iv, 1
  %14 = zext i32 %11 to i64
  %15 = icmp samesign ult i64 %indvars.iv.next, %14
  br i1 %15, label %.lr.ph17, label %._crit_edge18, !llvm.loop !30

._crit_edge18:                                    ; preds = %._crit_edge, %.preheader
  %16 = getelementptr inbounds nuw i8, ptr %0, i64 88
  store i64 0, ptr %16, align 8, !tbaa !31
  br label %17

17:                                               ; preds = %1, %._crit_edge18
  ret void
}